(lp1
VTEAM_ID
p2
aVTEAM_NAME
p3
aVGP
p4
aVW
aVL
aVW_PCT
p5
aVMIN
p6
aVFGM
p7
aVFGA
p8
aVFG_PCT
p9
aVFG3M
p10
aVFG3A
p11
aVFG3_PCT
p12
aVFTM
p13
aVFTA
p14
aVFT_PCT
p15
aVOREB
p16
aVDREB
p17
aVREB
p18
aVAST
p19
aVTOV
p20
aVSTL
p21
aVBLK
p22
aVBLKA
p23
aVPF
p24
aVPFD
p25
aVPTS
p26
aVPLUS_MINUS
p27
aVCFID
p28
aVCFPARAMS
p29
aS'MeasureType'
p30
aS'OpponentTeamID'
p31
aS'DateTo'
p32
aS'DateFrom'
p33
aS'Period'
p34
aS'TeamID'
p35
aVTS_PCT
p36
aVEFG_PCT
p37
aVDEF_RATING
p38
aVOFF_RATING
p39
aVNET_RATING
p40
aVPIE
p41
aVAST_TO
p42
aVPACE
p43
aVOREB_PCT
p44
aVREB_PCT
p45
aVTM_TOV_PCT
p46
aVAST_RATIO
p47
aVAST_PCT
p48
aVDREB_PCT
p49
aVPTS_OFF_TOV
p50
aVPTS_FB
p51
aVOPP_PTS_FB
p52
aVPTS_2ND_CHANCE
p53
aVOPP_PTS_2ND_CHANCE
p54
aVOPP_PTS_OFF_TOV
p55
aVPTS_PAINT
p56
aVOPP_PTS_PAINT
p57
aVFTA_RATE
p58
aVOPP_EFG_PCT
p59
aVOPP_FTA_RATE
p60
aVOPP_OREB_PCT
p61
aVOPP_TOV_PCT
p62
aVPCT_AST_FGM
p63
aVPCT_PTS_FB
p64
aVPCT_PTS_2PT
p65
aVPCT_AST_3PM
p66
aVPCT_UAST_FGM
p67
aVPCT_AST_2PM
p68
aVPCT_FGA_3PT
p69
aVPCT_FGA_2PT
p70
aVPCT_PTS_2PT_MR
p71
aVPCT_PTS_FT
p72
aVPCT_UAST_3PM
p73
aVPCT_PTS_3PT
p74
aVPCT_PTS_PAINT
p75
aVPCT_PTS_OFF_TOV
p76
aVPCT_UAST_2PM
p77
aVOPP_BLKA
p78
aVOPP_TOV
p79
aVOPP_FTA
p80
aVOPP_BLK
p81
aVOPP_FG3_PCT
p82
aVOPP_REB
p83
aVOPP_FGM
p84
aVOPP_PF
p85
aVOPP_PFD
p86
aVOPP_FG_PCT
p87
aVOPP_FT_PCT
p88
aVOPP_STL
p89
aVOPP_FG3A
p90
aVOPP_PTS
p91
aVOPP_AST
p92
aVOPP_FGA
p93
aVOPP_OREB
p94
aVOPP_DREB
p95
aVOPP_FTM
p96
aVOPP_FG3M
p97
a.